target datalayout = "e-m:e-p270:32:32-p271:32:32-p272:64:64-i64:64-i128:128-f80:128-n8:16:32:64-S128"
target triple = "x86_64-pc-linux-gnu"

%struct._zval_struct = type { %union._zend_value, %union.anon, %union.anon.2 }
%union._zend_value = type { i64 }
%union.anon = type { i32 }
%union.anon.2 = type { i32 }
%struct._zend_refcounted_h = type { i32, %union.anon.3 }
%union.anon.3 = type { i32 }
%struct._Bucket = type { %struct._zval_struct, i64, ptr }
%struct._zend_string = type { %struct._zend_refcounted_h, i64, i64, [1 x i8] }

; Function Attrs: alwaysinline nounwind uwtable
define internal i32 @php_array_key_compare_numeric_unstable_i(ptr noundef %0, ptr noundef %1) #5 {
  %3 = alloca i32, align 4
  %4 = alloca ptr, align 8
  %5 = alloca ptr, align 8
  %6 = alloca double, align 8
  %7 = alloca double, align 8
  store ptr %0, ptr %4, align 8, !tbaa !85
  store ptr %1, ptr %5, align 8, !tbaa !85
  %8 = load ptr, ptr %4, align 8, !tbaa !85
  %9 = getelementptr inbounds nuw %struct._Bucket, ptr %8, i32 0, i32 2
  %10 = load ptr, ptr %9, align 8, !tbaa !118
  %11 = icmp eq ptr %10, null
  br i1 %11, label %12, label %26

12:                                               ; preds = %2
  %13 = load ptr, ptr %5, align 8, !tbaa !85
  %14 = getelementptr inbounds nuw %struct._Bucket, ptr %13, i32 0, i32 2
  %15 = load ptr, ptr %14, align 8, !tbaa !118
  %16 = icmp eq ptr %15, null
  br i1 %16, label %17, label %26

17:                                               ; preds = %12
  %18 = load ptr, ptr %4, align 8, !tbaa !85
  %19 = getelementptr inbounds nuw %struct._Bucket, ptr %18, i32 0, i32 1
  %20 = load i64, ptr %19, align 8, !tbaa !116
  %21 = load ptr, ptr %5, align 8, !tbaa !85
  %22 = getelementptr inbounds nuw %struct._Bucket, ptr %21, i32 0, i32 1
  %23 = load i64, ptr %22, align 8, !tbaa !116
  %24 = icmp sgt i64 %20, %23
  %25 = select i1 %24, i32 1, i32 -1
  store i32 %25, ptr %3, align 4
  br label %72

26:                                               ; preds = %12, %2
  call void @llvm.lifetime.start.p0(i64 8, ptr %6) #17
  call void @llvm.lifetime.start.p0(i64 8, ptr %7) #17
  %27 = load ptr, ptr %4, align 8, !tbaa !85
  %28 = getelementptr inbounds nuw %struct._Bucket, ptr %27, i32 0, i32 2
  %29 = load ptr, ptr %28, align 8, !tbaa !118
  %30 = icmp ne ptr %29, null
  br i1 %30, label %31, label %38

31:                                               ; preds = %26
  %32 = load ptr, ptr %4, align 8, !tbaa !85
  %33 = getelementptr inbounds nuw %struct._Bucket, ptr %32, i32 0, i32 2
  %34 = load ptr, ptr %33, align 8, !tbaa !118
  %35 = getelementptr inbounds nuw %struct._zend_string, ptr %34, i32 0, i32 3
  %36 = getelementptr inbounds [1 x i8], ptr %35, i64 0, i64 0
  %37 = call double @zend_strtod(ptr noundef %36, ptr noundef null)
  store double %37, ptr %6, align 8, !tbaa !94
  br label %43

38:                                               ; preds = %26
  %39 = load ptr, ptr %4, align 8, !tbaa !85
  %40 = getelementptr inbounds nuw %struct._Bucket, ptr %39, i32 0, i32 1
  %41 = load i64, ptr %40, align 8, !tbaa !116
  %42 = sitofp i64 %41 to double
  store double %42, ptr %6, align 8, !tbaa !94
  br label %43

43:                                               ; preds = %38, %31
  %44 = load ptr, ptr %5, align 8, !tbaa !85
  %45 = getelementptr inbounds nuw %struct._Bucket, ptr %44, i32 0, i32 2
  %46 = load ptr, ptr %45, align 8, !tbaa !118
  %47 = icmp ne ptr %46, null
  br i1 %47, label %48, label %55

48:                                               ; preds = %43
  %49 = load ptr, ptr %5, align 8, !tbaa !85
  %50 = getelementptr inbounds nuw %struct._Bucket, ptr %49, i32 0, i32 2
  %51 = load ptr, ptr %50, align 8, !tbaa !118
  %52 = getelementptr inbounds nuw %struct._zend_string, ptr %51, i32 0, i32 3
  %53 = getelementptr inbounds [1 x i8], ptr %52, i64 0, i64 0
  %54 = call double @zend_strtod(ptr noundef %53, ptr noundef null)
  store double %54, ptr %7, align 8, !tbaa !94
  br label %60

55:                                               ; preds = %43
  %56 = load ptr, ptr %5, align 8, !tbaa !85
  %57 = getelementptr inbounds nuw %struct._Bucket, ptr %56, i32 0, i32 1
  %58 = load i64, ptr %57, align 8, !tbaa !116
  %59 = sitofp i64 %58 to double
  store double %59, ptr %7, align 8, !tbaa !94
  br label %60

60:                                               ; preds = %55, %48
  %61 = load double, ptr %6, align 8, !tbaa !94
  %62 = load double, ptr %7, align 8, !tbaa !94
  %63 = fcmp oeq double %61, %62
  br i1 %63, label %64, label %65

64:                                               ; preds = %60
  br label %70

65:                                               ; preds = %60
  %66 = load double, ptr %6, align 8, !tbaa !94
  %67 = load double, ptr %7, align 8, !tbaa !94
  %68 = fcmp olt double %66, %67
  %69 = select i1 %68, i32 -1, i32 1
  br label %70

70:                                               ; preds = %65, %64
  %71 = phi i32 [ 0, %64 ], [ %69, %65 ]
  store i32 %71, ptr %3, align 4
  call void @llvm.lifetime.end.p0(i64 8, ptr %7) #17
  call void @llvm.lifetime.end.p0(i64 8, ptr %6) #17
  br label %72

72:                                               ; preds = %70, %17
  %73 = load i32, ptr %3, align 4
  ret i32 %73
}

; Function Attrs: noinline nounwind uwtable
define internal i32 @php_array_key_compare_numeric(ptr noundef %0, ptr noundef %1) #14 {
  %3 = alloca i32, align 4
  %4 = alloca ptr, align 8
  %5 = alloca ptr, align 8
  %6 = alloca i32, align 4
  %7 = alloca i32, align 4
  store ptr %0, ptr %4, align 8, !tbaa !85
  store ptr %1, ptr %5, align 8, !tbaa !85
  br label %8

8:                                                ; preds = %2
  call void @llvm.lifetime.start.p0(i64 4, ptr %6) #17
  %9 = load ptr, ptr %4, align 8, !tbaa !85
  %10 = load ptr, ptr %5, align 8, !tbaa !85
  %11 = call i32 @php_array_key_compare_numeric_unstable_i(ptr noundef %9, ptr noundef %10)
  store i32 %11, ptr %6, align 4, !tbaa !4
  %12 = load i32, ptr %6, align 4, !tbaa !4
  %13 = icmp ne i32 %12, 0
  %14 = xor i1 %13, true
  %15 = xor i1 %14, true
  %16 = zext i1 %15 to i32
  %17 = sext i32 %16 to i64
  %18 = call i64 @llvm.expect.i64(i64 %17, i64 1)
  %19 = icmp ne i64 %18, 0
  br i1 %19, label %20, label %22

20:                                               ; preds = %8
  %21 = load i32, ptr %6, align 4, !tbaa !4
  store i32 %21, ptr %3, align 4
  store i32 1, ptr %7, align 4
  br label %26

22:                                               ; preds = %8
  %23 = load ptr, ptr %4, align 8, !tbaa !85
  %24 = load ptr, ptr %5, align 8, !tbaa !85
  %25 = call i32 @stable_sort_fallback(ptr noundef %23, ptr noundef %24)
  store i32 %25, ptr %3, align 4
  store i32 1, ptr %7, align 4
  br label %26

26:                                               ; preds = %22, %20
  call void @llvm.lifetime.end.p0(i64 4, ptr %6) #17
  br label %27

27:                                               ; preds = %26
  %28 = load i32, ptr %3, align 4
  ret i32 %28
}