; Function Attrs: noinline nounwind uwtable
define internal range(i32 -1, 2) i32 @php_array_key_compare_numeric(ptr noundef readonly captures(none) %0, ptr noundef readonly captures(none) %1) #16 {
  %3 = getelementptr inbounds nuw i8, ptr %0, i64 24
  %4 = load ptr, ptr %3, align 8, !tbaa !114
  %5 = icmp eq ptr %4, null
  br i1 %5, label %6, label %18

6:                                                ; preds = %2
  %7 = getelementptr inbounds nuw i8, ptr %1, i64 24
  %8 = load ptr, ptr %7, align 8, !tbaa !114
  %9 = icmp eq ptr %8, null
  %10 = getelementptr inbounds nuw i8, ptr %0, i64 16
  %11 = load i64, ptr %10, align 8, !tbaa !116
  br i1 %9, label %12, label %.thread

12:                                               ; preds = %6
  %13 = getelementptr inbounds nuw i8, ptr %1, i64 16
  %14 = load i64, ptr %13, align 8, !tbaa !116
  %15 = icmp sgt i64 %11, %14
  %16 = select i1 %15, i32 1, i32 -1
  br label %php_array_key_compare_numeric_unstable_i.exit.thread

.thread:                                          ; preds = %6
  %17 = sitofp i64 %11 to double
  br label %21

18:                                               ; preds = %2
  %19 = getelementptr inbounds nuw i8, ptr %4, i64 24
  %20 = tail call double @zend_strtod(ptr noundef nonnull %19, ptr noundef null) #21
  %.phi.trans.insert = getelementptr inbounds nuw i8, ptr %1, i64 24
  %.pre = load ptr, ptr %.phi.trans.insert, align 8, !tbaa !114
  %.not18.i = icmp eq ptr %.pre, null
  br i1 %.not18.i, label %25, label %21

21:                                               ; preds = %.thread, %18
  %.014.i13 = phi double [ %17, %.thread ], [ %20, %18 ]
  %22 = phi ptr [ %8, %.thread ], [ %.pre, %18 ]
  %23 = getelementptr inbounds nuw i8, ptr %22, i64 24
  %24 = tail call double @zend_strtod(ptr noundef nonnull %23, ptr noundef null) #21
  br label %29

25:                                               ; preds = %18
  %26 = getelementptr inbounds nuw i8, ptr %1, i64 16
  %27 = load i64, ptr %26, align 8, !tbaa !116
  %28 = sitofp i64 %27 to double
  br label %29

29:                                               ; preds = %25, %21
  %.014.i12 = phi double [ %.014.i13, %21 ], [ %20, %25 ]
  %.0.i = phi double [ %24, %21 ], [ %28, %25 ]
  %30 = fcmp oeq double %.014.i12, %.0.i
  %31 = fcmp olt double %.014.i12, %.0.i
  %32 = select i1 %31, i32 -1, i32 1
  br i1 %30, label %php_array_key_compare_numeric_unstable_i.exit, label %php_array_key_compare_numeric_unstable_i.exit.thread

php_array_key_compare_numeric_unstable_i.exit:    ; preds = %29
  %33 = getelementptr i8, ptr %0, i64 12
  %.val = load i32, ptr %33, align 4, !tbaa !8
  %34 = getelementptr i8, ptr %1, i64 12
  %.val7 = load i32, ptr %34, align 4, !tbaa !8
  %35 = tail call fastcc i32 @stable_sort_fallback(i32 %.val, i32 %.val7)
  br label %php_array_key_compare_numeric_unstable_i.exit.thread

php_array_key_compare_numeric_unstable_i.exit.thread: ; preds = %29, %12, %php_array_key_compare_numeric_unstable_i.exit
  %.0 = phi i32 [ %35, %php_array_key_compare_numeric_unstable_i.exit ], [ %32, %29 ], [ %16, %12 ]
  ret i32 %.0
}